target datalayout = "e-m:e-p270:32:32-p271:32:32-p272:64:64-i64:64-i128:128-f80:128-n8:16:32:64-S128"
target triple = "x86_64-pc-linux-gnu"

%struct.UDataInfo = type { i16, i16, i8, i8, i8, i8, [4 x i8], [4 x i8], [4 x i8] }
%struct.UDataSwapper = type { i8, i8, i8, i8, ptr, ptr, ptr, ptr, ptr, ptr, ptr, ptr, ptr, ptr, ptr }

@.str.25 = private unnamed_addr constant [41 x i8] c"test_swap(): data header swap failed %s\0A\00", align 1
@.str.26 = private unnamed_addr constant [22 x i8] c"pErrorCode is nullptr\00", align 1
@.str.27 = private unnamed_addr constant [98 x i8] c"test_swap(): data format %02x.%02x.%02x.%02x (format version %02x) is not recognized as testdata\0A\00", align 1
@.str.28 = private unnamed_addr constant [77 x i8] c"test_swap(): too few bytes (%d after header, wanted %d) for all of testdata\0A\00", align 1

; Function Attrs: inlinehint mustprogress nounwind uwtable
define internal noundef signext i8 @_ZL9U_FAILURE10UErrorCode(i32 noundef %0) #2 {
  %2 = alloca i32, align 4
  store i32 %0, ptr %2, align 4, !tbaa !11
  %3 = load i32, ptr %2, align 4, !tbaa !11
  %4 = icmp sgt i32 %3, 0
  %5 = zext i1 %4 to i8
  ret i8 %5
}

; Function Attrs: mustprogress uwtable
define internal noundef i32 @_ZL9test_swapPK12UDataSwapperPKviPvP10UErrorCode(ptr noundef %0, ptr noundef %1, i32 noundef %2, ptr noundef %3, ptr noundef %4) #0 {
  %6 = alloca i32, align 4
  %7 = alloca ptr, align 8
  %8 = alloca ptr, align 8
  %9 = alloca i32, align 4
  %10 = alloca ptr, align 8
  %11 = alloca ptr, align 8
  %12 = alloca ptr, align 8
  %13 = alloca i32, align 4
  %14 = alloca ptr, align 8
  %15 = alloca ptr, align 8
  %16 = alloca i32, align 4
  %17 = alloca i32, align 4
  %18 = alloca i32, align 4
  %19 = alloca i32, align 4
  %20 = alloca i32, align 4
  store ptr %0, ptr %7, align 8, !tbaa !3
  store ptr %1, ptr %8, align 8, !tbaa !8
  store i32 %2, ptr %9, align 4, !tbaa !9
  store ptr %3, ptr %10, align 8, !tbaa !8
  store ptr %4, ptr %11, align 8, !tbaa !8
  call void @llvm.lifetime.start.p0(i64 8, ptr %12) #6
  call void @llvm.lifetime.start.p0(i64 4, ptr %13) #6
  call void @llvm.lifetime.start.p0(i64 8, ptr %14) #6
  call void @llvm.lifetime.start.p0(i64 8, ptr %15) #6
  call void @llvm.lifetime.start.p0(i64 4, ptr %16) #6
  %21 = load ptr, ptr %7, align 8, !tbaa !3
  %22 = load ptr, ptr %8, align 8, !tbaa !8
  %23 = load i32, ptr %9, align 4, !tbaa !9
  %24 = load ptr, ptr %10, align 8, !tbaa !8
  %25 = load ptr, ptr %11, align 8, !tbaa !8
  %26 = call i32 @udata_swapDataHeader_77(ptr noundef %21, ptr noundef %22, i32 noundef %23, ptr noundef %24, ptr noundef %25)
  store i32 %26, ptr %13, align 4, !tbaa !9
  %27 = load ptr, ptr %11, align 8, !tbaa !8
  %28 = icmp eq ptr %27, null
  br i1 %28, label %34, label %29

29:                                               ; preds = %5
  %30 = load ptr, ptr %11, align 8, !tbaa !8
  %31 = load i32, ptr %30, align 4, !tbaa !11
  %32 = call noundef signext i8 @_ZL9U_FAILURE10UErrorCode(i32 noundef %31)
  %33 = icmp ne i8 %32, 0
  br i1 %33, label %34, label %45

34:                                               ; preds = %29, %5
  %35 = load ptr, ptr %7, align 8, !tbaa !3
  %36 = load ptr, ptr %11, align 8, !tbaa !8
  %37 = icmp ne ptr %36, null
  br i1 %37, label %38, label %42

38:                                               ; preds = %34
  %39 = load ptr, ptr %11, align 8, !tbaa !8
  %40 = load i32, ptr %39, align 4, !tbaa !11
  %41 = call ptr @u_errorName_77(i32 noundef %40)
  br label %43

42:                                               ; preds = %34
  br label %43

43:                                               ; preds = %42, %38
  %44 = phi ptr [ %41, %38 ], [ @.str.26, %42 ]
  call void (ptr, ptr, ...) @udata_printError_77(ptr noundef %35, ptr noundef @.str.25, ptr noundef %44)
  store i32 0, ptr %6, align 4
  store i32 1, ptr %17, align 4
  br label %172

45:                                               ; preds = %29
  %46 = load ptr, ptr %8, align 8, !tbaa !8
  %47 = getelementptr inbounds i8, ptr %46, i64 4
  store ptr %47, ptr %12, align 8, !tbaa !8
  %48 = load ptr, ptr %12, align 8, !tbaa !8
  %49 = getelementptr inbounds nuw %struct.UDataInfo, ptr %48, i32 0, i32 6
  %50 = getelementptr inbounds [4 x i8], ptr %49, i64 0, i64 0
  %51 = load i8, ptr %50, align 2, !tbaa !13
  %52 = zext i8 %51 to i32
  %53 = icmp eq i32 %52, 84
  br i1 %53, label %54, label %82

54:                                               ; preds = %45
  %55 = load ptr, ptr %12, align 8, !tbaa !8
  %56 = getelementptr inbounds nuw %struct.UDataInfo, ptr %55, i32 0, i32 6
  %57 = getelementptr inbounds [4 x i8], ptr %56, i64 0, i64 1
  %58 = load i8, ptr %57, align 1, !tbaa !13
  %59 = zext i8 %58 to i32
  %60 = icmp eq i32 %59, 101
  br i1 %60, label %61, label %82

61:                                               ; preds = %54
  %62 = load ptr, ptr %12, align 8, !tbaa !8
  %63 = getelementptr inbounds nuw %struct.UDataInfo, ptr %62, i32 0, i32 6
  %64 = getelementptr inbounds [4 x i8], ptr %63, i64 0, i64 2
  %65 = load i8, ptr %64, align 2, !tbaa !13
  %66 = zext i8 %65 to i32
  %67 = icmp eq i32 %66, 115
  br i1 %67, label %68, label %82

68:                                               ; preds = %61
  %69 = load ptr, ptr %12, align 8, !tbaa !8
  %70 = getelementptr inbounds nuw %struct.UDataInfo, ptr %69, i32 0, i32 6
  %71 = getelementptr inbounds [4 x i8], ptr %70, i64 0, i64 3
  %72 = load i8, ptr %71, align 1, !tbaa !13
  %73 = zext i8 %72 to i32
  %74 = icmp eq i32 %73, 116
  br i1 %74, label %75, label %82

75:                                               ; preds = %68
  %76 = load ptr, ptr %12, align 8, !tbaa !8
  %77 = getelementptr inbounds nuw %struct.UDataInfo, ptr %76, i32 0, i32 7
  %78 = getelementptr inbounds [4 x i8], ptr %77, i64 0, i64 0
  %79 = load i8, ptr %78, align 2, !tbaa !13
  %80 = zext i8 %79 to i32
  %81 = icmp eq i32 %80, 1
  br i1 %81, label %110, label %82

82:                                               ; preds = %75, %68, %61, %54, %45
  %83 = load ptr, ptr %7, align 8, !tbaa !3
  %84 = load ptr, ptr %12, align 8, !tbaa !8
  %85 = getelementptr inbounds nuw %struct.UDataInfo, ptr %84, i32 0, i32 6
  %86 = getelementptr inbounds [4 x i8], ptr %85, i64 0, i64 0
  %87 = load i8, ptr %86, align 2, !tbaa !13
  %88 = zext i8 %87 to i32
  %89 = load ptr, ptr %12, align 8, !tbaa !8
  %90 = getelementptr inbounds nuw %struct.UDataInfo, ptr %89, i32 0, i32 6
  %91 = getelementptr inbounds [4 x i8], ptr %90, i64 0, i64 1
  %92 = load i8, ptr %91, align 1, !tbaa !13
  %93 = zext i8 %92 to i32
  %94 = load ptr, ptr %12, align 8, !tbaa !8
  %95 = getelementptr inbounds nuw %struct.UDataInfo, ptr %94, i32 0, i32 6
  %96 = getelementptr inbounds [4 x i8], ptr %95, i64 0, i64 2
  %97 = load i8, ptr %96, align 2, !tbaa !13
  %98 = zext i8 %97 to i32
  %99 = load ptr, ptr %12, align 8, !tbaa !8
  %100 = getelementptr inbounds nuw %struct.UDataInfo, ptr %99, i32 0, i32 6
  %101 = getelementptr inbounds [4 x i8], ptr %100, i64 0, i64 3
  %102 = load i8, ptr %101, align 1, !tbaa !13
  %103 = zext i8 %102 to i32
  %104 = load ptr, ptr %12, align 8, !tbaa !8
  %105 = getelementptr inbounds nuw %struct.UDataInfo, ptr %104, i32 0, i32 7
  %106 = getelementptr inbounds [4 x i8], ptr %105, i64 0, i64 0
  %107 = load i8, ptr %106, align 2, !tbaa !13
  %108 = zext i8 %107 to i32
  call void (ptr, ptr, ...) @udata_printError_77(ptr noundef %83, ptr noundef @.str.27, i32 noundef %88, i32 noundef %93, i32 noundef %98, i32 noundef %103, i32 noundef %108)
  %109 = load ptr, ptr %11, align 8, !tbaa !8
  store i32 16, ptr %109, align 4, !tbaa !11
  store i32 0, ptr %6, align 4
  store i32 1, ptr %17, align 4
  br label %172

110:                                              ; preds = %75
  %111 = load ptr, ptr %8, align 8, !tbaa !8
  %112 = load i32, ptr %13, align 4, !tbaa !9
  %113 = sext i32 %112 to i64
  %114 = getelementptr inbounds i8, ptr %111, i64 %113
  store ptr %114, ptr %14, align 8, !tbaa !27
  %115 = load ptr, ptr %10, align 8, !tbaa !8
  %116 = load i32, ptr %13, align 4, !tbaa !9
  %117 = sext i32 %116 to i64
  %118 = getelementptr inbounds i8, ptr %115, i64 %117
  store ptr %118, ptr %15, align 8, !tbaa !27
  call void @llvm.lifetime.start.p0(i64 4, ptr %18) #6
  store i32 2, ptr %18, align 4, !tbaa !9
  call void @llvm.lifetime.start.p0(i64 4, ptr %19) #6
  store i32 5, ptr %19, align 4, !tbaa !9
  call void @llvm.lifetime.start.p0(i64 4, ptr %20) #6
  %119 = load i32, ptr %18, align 4, !tbaa !9
  %120 = load i32, ptr %19, align 4, !tbaa !9
  %121 = add nsw i32 %119, %120
  store i32 %121, ptr %20, align 4, !tbaa !9
  %122 = load i32, ptr %9, align 4, !tbaa !9
  %123 = icmp sge i32 %122, 0
  br i1 %123, label %124, label %167

124:                                              ; preds = %110
  %125 = load i32, ptr %9, align 4, !tbaa !9
  %126 = load i32, ptr %20, align 4, !tbaa !9
  %127 = icmp slt i32 %125, %126
  br i1 %127, label %128, label %133

128:                                              ; preds = %124
  %129 = load ptr, ptr %7, align 8, !tbaa !3
  %130 = load i32, ptr %9, align 4, !tbaa !9
  %131 = load i32, ptr %20, align 4, !tbaa !9
  call void (ptr, ptr, ...) @udata_printError_77(ptr noundef %129, ptr noundef @.str.28, i32 noundef %130, i32 noundef %131)
  %132 = load ptr, ptr %11, align 8, !tbaa !8
  store i32 8, ptr %132, align 4, !tbaa !11
  store i32 0, ptr %6, align 4
  store i32 1, ptr %17, align 4
  br label %171

133:                                              ; preds = %124
  store i32 0, ptr %16, align 4, !tbaa !9
  %134 = load ptr, ptr %7, align 8, !tbaa !3
  %135 = getelementptr inbounds nuw %struct.UDataSwapper, ptr %134, i32 0, i32 9
  %136 = load ptr, ptr %135, align 8, !tbaa !26
  %137 = load ptr, ptr %7, align 8, !tbaa !3
  %138 = load ptr, ptr %14, align 8, !tbaa !27
  %139 = load i32, ptr %16, align 4, !tbaa !9
  %140 = sext i32 %139 to i64
  %141 = getelementptr inbounds i8, ptr %138, i64 %140
  %142 = load i32, ptr %18, align 4, !tbaa !9
  %143 = load ptr, ptr %15, align 8, !tbaa !27
  %144 = load i32, ptr %16, align 4, !tbaa !9
  %145 = sext i32 %144 to i64
  %146 = getelementptr inbounds i8, ptr %143, i64 %145
  %147 = load ptr, ptr %11, align 8, !tbaa !8
  %148 = call noundef i32 %136(ptr noundef %137, ptr noundef %141, i32 noundef %142, ptr noundef %146, ptr noundef %147)
  %149 = load i32, ptr %18, align 4, !tbaa !9
  %150 = load i32, ptr %16, align 4, !tbaa !9
  %151 = add nsw i32 %150, %149
  store i32 %151, ptr %16, align 4, !tbaa !9
  %152 = load ptr, ptr %7, align 8, !tbaa !3
  %153 = getelementptr inbounds nuw %struct.UDataSwapper, ptr %152, i32 0, i32 12
  %154 = load ptr, ptr %153, align 8, !tbaa !35
  %155 = load ptr, ptr %7, align 8, !tbaa !3
  %156 = load ptr, ptr %14, align 8, !tbaa !27
  %157 = load i32, ptr %16, align 4, !tbaa !9
  %158 = sext i32 %157 to i64
  %159 = getelementptr inbounds i8, ptr %156, i64 %158
  %160 = load i32, ptr %19, align 4, !tbaa !9
  %161 = load ptr, ptr %15, align 8, !tbaa !27
  %162 = load i32, ptr %16, align 4, !tbaa !9
  %163 = sext i32 %162 to i64
  %164 = getelementptr inbounds i8, ptr %161, i64 %163
  %165 = load ptr, ptr %11, align 8, !tbaa !8
  %166 = call noundef i32 %154(ptr noundef %155, ptr noundef %159, i32 noundef %160, ptr noundef %164, ptr noundef %165)
  br label %167

167:                                              ; preds = %133, %110
  %168 = load i32, ptr %13, align 4, !tbaa !9
  %169 = load i32, ptr %20, align 4, !tbaa !9
  %170 = add nsw i32 %168, %169
  store i32 %170, ptr %6, align 4
  store i32 1, ptr %17, align 4
  br label %171

171:                                              ; preds = %167, %128
  call void @llvm.lifetime.end.p0(i64 4, ptr %20) #6
  call void @llvm.lifetime.end.p0(i64 4, ptr %19) #6
  call void @llvm.lifetime.end.p0(i64 4, ptr %18) #6
  br label %172

172:                                              ; preds = %171, %82, %43
  call void @llvm.lifetime.end.p0(i64 4, ptr %16) #6
  call void @llvm.lifetime.end.p0(i64 8, ptr %15) #6
  call void @llvm.lifetime.end.p0(i64 8, ptr %14) #6
  call void @llvm.lifetime.end.p0(i64 4, ptr %13) #6
  call void @llvm.lifetime.end.p0(i64 8, ptr %12) #6
  %173 = load i32, ptr %6, align 4
  ret i32 %173
}