; Function Attrs: mustprogress uwtable
define internal noundef range(i32 -2147483641, -2147483648) i32 @_ZL9test_swapPK12UDataSwapperPKviPvP10UErrorCode(ptr noundef %0, ptr noundef %1, i32 noundef %2, ptr noundef %3, ptr noundef %4) #0 {
  %6 = tail call i32 @udata_swapDataHeader_77(ptr noundef %0, ptr noundef %1, i32 noundef %2, ptr noundef %3, ptr noundef %4)
  %cond = icmp eq ptr %4, null
  br i1 %cond, label %12, label %7

7:                                                ; preds = %5
  %8 = load i32, ptr %4, align 4, !tbaa !3
  %9 = icmp slt i32 %8, 1
  br i1 %9, label %14, label %10

10:                                               ; preds = %7
  %11 = tail call ptr @u_errorName_77(i32 noundef %8)
  br label %12

12:                                               ; preds = %5, %10
  %13 = phi ptr [ %11, %10 ], [ @.str.26, %5 ]
  tail call void (ptr, ptr, ...) @udata_printError_77(ptr noundef %0, ptr noundef nonnull @.str.25, ptr noundef %13)
  br label %64

14:                                               ; preds = %7
  %15 = getelementptr inbounds nuw i8, ptr %1, i64 12
  %16 = load i8, ptr %15, align 2, !tbaa !7
  %17 = icmp eq i8 %16, 84
  %18 = getelementptr inbounds nuw i8, ptr %1, i64 13
  %19 = load i8, ptr %18, align 1, !tbaa !7
  %20 = icmp eq i8 %19, 101
  %or.cond = select i1 %17, i1 %20, i1 false
  br i1 %or.cond, label %21, label %._crit_edge

21:                                               ; preds = %14
  %22 = getelementptr inbounds nuw i8, ptr %1, i64 14
  %23 = load i8, ptr %22, align 2, !tbaa !7
  %24 = icmp eq i8 %23, 115
  br i1 %24, label %25, label %._crit_edge

25:                                               ; preds = %21
  %26 = getelementptr inbounds nuw i8, ptr %1, i64 15
  %27 = load i8, ptr %26, align 1, !tbaa !7
  %28 = icmp eq i8 %27, 116
  br i1 %28, label %29, label %._crit_edge

29:                                               ; preds = %25
  %30 = getelementptr inbounds nuw i8, ptr %1, i64 16
  %31 = load i8, ptr %30, align 2, !tbaa !7
  %32 = icmp eq i8 %31, 1
  br i1 %32, label %45, label %._crit_edge

._crit_edge:                                      ; preds = %14, %29, %25, %21
  %33 = phi i8 [ 101, %29 ], [ 101, %25 ], [ 101, %21 ], [ %19, %14 ]
  %34 = zext i8 %16 to i32
  %35 = zext i8 %33 to i32
  %36 = getelementptr inbounds nuw i8, ptr %1, i64 14
  %37 = load i8, ptr %36, align 2, !tbaa !7
  %38 = zext i8 %37 to i32
  %39 = getelementptr inbounds nuw i8, ptr %1, i64 15
  %40 = load i8, ptr %39, align 1, !tbaa !7
  %41 = zext i8 %40 to i32
  %42 = getelementptr inbounds nuw i8, ptr %1, i64 16
  %43 = load i8, ptr %42, align 2, !tbaa !7
  %44 = zext i8 %43 to i32
  tail call void (ptr, ptr, ...) @udata_printError_77(ptr noundef %0, ptr noundef nonnull @.str.27, i32 noundef %34, i32 noundef %35, i32 noundef %38, i32 noundef %41, i32 noundef %44)
  store i32 16, ptr %4, align 4, !tbaa !3
  br label %64

45:                                               ; preds = %29
  %46 = sext i32 %6 to i64
  %47 = getelementptr inbounds i8, ptr %1, i64 %46
  %48 = getelementptr inbounds i8, ptr %3, i64 %46
  %49 = icmp sgt i32 %2, -1
  br i1 %49, label %50, label %62

50:                                               ; preds = %45
  %51 = icmp samesign ult i32 %2, 7
  br i1 %51, label %52, label %53

52:                                               ; preds = %50
  tail call void (ptr, ptr, ...) @udata_printError_77(ptr noundef %0, ptr noundef nonnull @.str.28, i32 noundef %2, i32 noundef 7)
  store i32 8, ptr %4, align 4, !tbaa !3
  br label %64

53:                                               ; preds = %50
  %54 = getelementptr inbounds nuw i8, ptr %0, i64 48
  %55 = load ptr, ptr %54, align 8, !tbaa !21
  %56 = tail call noundef i32 %55(ptr noundef %0, ptr noundef %47, i32 noundef 2, ptr noundef %48, ptr noundef nonnull %4)
  %57 = getelementptr inbounds nuw i8, ptr %0, i64 72
  %58 = load ptr, ptr %57, align 8, !tbaa !28
  %59 = getelementptr inbounds nuw i8, ptr %47, i64 2
  %60 = getelementptr inbounds nuw i8, ptr %48, i64 2
  %61 = tail call noundef i32 %58(ptr noundef %0, ptr noundef nonnull %59, i32 noundef 5, ptr noundef nonnull %60, ptr noundef nonnull %4)
  br label %62

62:                                               ; preds = %53, %45
  %63 = add nsw i32 %6, 7
  br label %64

64:                                               ; preds = %52, %62, %._crit_edge, %12
  %.0 = phi i32 [ 0, %12 ], [ 0, %._crit_edge ], [ 0, %52 ], [ %63, %62 ]
  ret i32 %.0
}